target datalayout = "e-m:e-p270:32:32-p271:32:32-p272:64:64-i64:64-i128:128-f80:128-n8:16:32:64-S128"
target triple = "x86_64-pc-linux-gnu"

%struct.Pe_Binary_t = type { ptr, %struct.Pe_DosHeader_t, %struct.Pe_Header_t, %struct.Pe_OptionalHeader_t, ptr, ptr, ptr }
%struct.Pe_DosHeader_t = type { i16, i16, i16, i16, i16, i16, i16, i16, i16, i16, i16, i16, i16, i16, [4 x i16], i16, i16, [10 x i16], i32 }
%struct.Pe_Header_t = type { [4 x i8], i32, i16, i32, i32, i32, i16, i16 }
%struct.Pe_OptionalHeader_t = type { i16, i8, i8, i32, i32, i32, i32, i32, i32, i64, i32, i32, i16, i16, i16, i16, i16, i16, i32, i32, i32, i32, i32, i32, i64, i64, i64, i64, i32, i32 }

; Function Attrs: mustprogress nounwind uwtable
define hidden void @_ZN4LIEF2PE24destroy_data_directoriesEP11Pe_Binary_t(ptr noundef %0) #0 {
  %2 = alloca ptr, align 8
  %3 = alloca ptr, align 8
  %4 = alloca i64, align 8
  store ptr %0, ptr %2, align 8, !tbaa !3
  call void @llvm.lifetime.start.p0(i64 8, ptr %3) #7
  %5 = load ptr, ptr %2, align 8, !tbaa !3
  %6 = getelementptr inbounds nuw %struct.Pe_Binary_t, ptr %5, i32 0, i32 4
  %7 = load ptr, ptr %6, align 8, !tbaa !10
  store ptr %7, ptr %3, align 8, !tbaa !47
  call void @llvm.lifetime.start.p0(i64 8, ptr %4) #7
  store i64 0, ptr %4, align 8, !tbaa !24
  br label %8

8:                                                ; preds = %20, %1
  %9 = load ptr, ptr %3, align 8, !tbaa !47
  %10 = load i64, ptr %4, align 8, !tbaa !24
  %11 = getelementptr inbounds nuw ptr, ptr %9, i64 %10
  %12 = load ptr, ptr %11, align 8, !tbaa !25
  %13 = icmp ne ptr %12, null
  br i1 %13, label %15, label %14

14:                                               ; preds = %8
  call void @llvm.lifetime.end.p0(i64 8, ptr %4) #7
  br label %23

15:                                               ; preds = %8
  %16 = load ptr, ptr %3, align 8, !tbaa !47
  %17 = load i64, ptr %4, align 8, !tbaa !24
  %18 = getelementptr inbounds nuw ptr, ptr %16, i64 %17
  %19 = load ptr, ptr %18, align 8, !tbaa !25
  call void @free(ptr noundef %19) #7
  br label %20

20:                                               ; preds = %15
  %21 = load i64, ptr %4, align 8, !tbaa !24
  %22 = add i64 %21, 1
  store i64 %22, ptr %4, align 8, !tbaa !24
  br label %8, !llvm.loop !48

23:                                               ; preds = %14
  %24 = load ptr, ptr %2, align 8, !tbaa !3
  %25 = getelementptr inbounds nuw %struct.Pe_Binary_t, ptr %24, i32 0, i32 4
  %26 = load ptr, ptr %25, align 8, !tbaa !10
  call void @free(ptr noundef %26) #7
  call void @llvm.lifetime.end.p0(i64 8, ptr %3) #7
  ret void
}